target datalayout = "e-m:e-p270:32:32-p271:32:32-p272:64:64-i64:64-i128:128-f80:128-n8:16:32:64-S128"
target triple = "x86_64-pc-linux-gnu"

%struct.pbl_descriptor_pool_t = type { ptr, ptr, ptr, ptr, ptr, ptr }

; Function Attrs: null_pointer_is_valid sspstrong uwtable
define hidden void @pbl_free_pool(ptr noundef %0) #0 {
  %2 = alloca ptr, align 8
  store ptr %0, ptr %2, align 8
  %3 = load ptr, ptr %2, align 8
  %4 = icmp eq ptr %3, null
  br i1 %4, label %5, label %6

5:                                                ; preds = %1
  br label %20

6:                                                ; preds = %1
  %7 = load ptr, ptr %2, align 8
  %8 = getelementptr inbounds nuw %struct.pbl_descriptor_pool_t, ptr %7, i32 0, i32 0
  %9 = load ptr, ptr %8, align 8
  call void @g_queue_free_full(ptr noundef %9, ptr noundef @g_free)
  %10 = load ptr, ptr %2, align 8
  %11 = getelementptr inbounds nuw %struct.pbl_descriptor_pool_t, ptr %10, i32 0, i32 2
  %12 = load ptr, ptr %11, align 8
  call void @g_hash_table_destroy(ptr noundef %12)
  %13 = load ptr, ptr %2, align 8
  %14 = getelementptr inbounds nuw %struct.pbl_descriptor_pool_t, ptr %13, i32 0, i32 4
  %15 = load ptr, ptr %14, align 8
  call void @g_queue_free(ptr noundef %15)
  %16 = load ptr, ptr %2, align 8
  %17 = getelementptr inbounds nuw %struct.pbl_descriptor_pool_t, ptr %16, i32 0, i32 3
  %18 = load ptr, ptr %17, align 8
  call void @g_hash_table_destroy(ptr noundef %18)
  %19 = load ptr, ptr %2, align 8
  call void @g_free(ptr noundef %19)
  br label %20

20:                                               ; preds = %6, %5
  ret void
}

; Function Attrs: null_pointer_is_valid sspstrong uwtable
define hidden void @pbl_reinit_descriptor_pool(ptr noundef %0, ptr noundef %1, ptr noundef %2) #0 {
  %4 = alloca ptr, align 8
  %5 = alloca ptr, align 8
  %6 = alloca ptr, align 8
  %7 = alloca i32, align 4
  %8 = alloca ptr, align 8
  %9 = alloca i64, align 8
  %10 = alloca i64, align 8
  %11 = alloca ptr, align 8
  %12 = alloca ptr, align 8
  store ptr %0, ptr %4, align 8
  store ptr %1, ptr %5, align 8
  store ptr %2, ptr %6, align 8
  call void @llvm.lifetime.start.p0(i64 4, ptr %7) #13
  %13 = load ptr, ptr %4, align 8
  %14 = load ptr, ptr %13, align 8
  call void @pbl_free_pool(ptr noundef %14)
  call void @llvm.lifetime.start.p0(i64 8, ptr %8) #13
  call void @llvm.lifetime.start.p0(i64 8, ptr %9) #13
  store i64 1, ptr %9, align 8
  call void @llvm.lifetime.start.p0(i64 8, ptr %10) #13
  store i64 48, ptr %10, align 8
  call void @llvm.lifetime.start.p0(i64 8, ptr %11) #13
  %15 = load i64, ptr %10, align 8
  %16 = icmp eq i64 %15, 1
  br i1 %16, label %17, label %20

17:                                               ; preds = %3
  %18 = load i64, ptr %9, align 8
  %19 = call noalias ptr @g_malloc0(i64 noundef %18) #14
  store ptr %19, ptr %11, align 8
  br label %41

20:                                               ; preds = %3
  %21 = load i64, ptr %9, align 8
  %22 = call i1 @llvm.is.constant.i64(i64 %21)
  br i1 %22, label %23, label %36

23:                                               ; preds = %20
  %24 = load i64, ptr %10, align 8
  %25 = icmp eq i64 %24, 0
  br i1 %25, label %31, label %26

26:                                               ; preds = %23
  %27 = load i64, ptr %9, align 8
  %28 = load i64, ptr %10, align 8
  %29 = udiv i64 -1, %28
  %30 = icmp ule i64 %27, %29
  br i1 %30, label %31, label %36

31:                                               ; preds = %26, %23
  %32 = load i64, ptr %9, align 8
  %33 = load i64, ptr %10, align 8
  %34 = mul i64 %32, %33
  %35 = call noalias ptr @g_malloc0(i64 noundef %34) #14
  store ptr %35, ptr %11, align 8
  br label %40

36:                                               ; preds = %26, %20
  %37 = load i64, ptr %9, align 8
  %38 = load i64, ptr %10, align 8
  %39 = call noalias ptr @g_malloc0_n(i64 noundef %37, i64 noundef %38) #15
  store ptr %39, ptr %11, align 8
  br label %40

40:                                               ; preds = %36, %31
  br label %41

41:                                               ; preds = %40, %17
  %42 = load ptr, ptr %11, align 8
  store ptr %42, ptr %12, align 8
  call void @llvm.lifetime.end.p0(i64 8, ptr %11) #13
  call void @llvm.lifetime.end.p0(i64 8, ptr %10) #13
  call void @llvm.lifetime.end.p0(i64 8, ptr %9) #13
  %43 = load ptr, ptr %12, align 8
  store ptr %43, ptr %8, align 8
  %44 = call ptr @g_queue_new()
  %45 = load ptr, ptr %8, align 8
  %46 = getelementptr inbounds nuw %struct.pbl_descriptor_pool_t, ptr %45, i32 0, i32 0
  store ptr %44, ptr %46, align 8
  store i32 0, ptr %7, align 4
  br label %47

47:                                               ; preds = %64, %41
  %48 = load ptr, ptr %5, align 8
  %49 = load i32, ptr %7, align 4
  %50 = zext i32 %49 to i64
  %51 = getelementptr ptr, ptr %48, i64 %50
  %52 = load ptr, ptr %51, align 8
  %53 = icmp ne ptr %52, null
  br i1 %53, label %54, label %67

54:                                               ; preds = %47
  %55 = load ptr, ptr %8, align 8
  %56 = getelementptr inbounds nuw %struct.pbl_descriptor_pool_t, ptr %55, i32 0, i32 0
  %57 = load ptr, ptr %56, align 8
  %58 = load ptr, ptr %5, align 8
  %59 = load i32, ptr %7, align 4
  %60 = zext i32 %59 to i64
  %61 = getelementptr ptr, ptr %58, i64 %60
  %62 = load ptr, ptr %61, align 8
  %63 = call noalias ptr @g_strdup(ptr noundef %62)
  call void @g_queue_push_tail(ptr noundef %57, ptr noundef %63)
  br label %64

64:                                               ; preds = %54
  %65 = load i32, ptr %7, align 4
  %66 = add i32 %65, 1
  store i32 %66, ptr %7, align 4
  br label %47, !llvm.loop !6

67:                                               ; preds = %47
  %68 = load ptr, ptr %6, align 8
  %69 = icmp ne ptr %68, null
  br i1 %69, label %70, label %72

70:                                               ; preds = %67
  %71 = load ptr, ptr %6, align 8
  br label %73

72:                                               ; preds = %67
  br label %73

73:                                               ; preds = %72, %70
  %74 = phi ptr [ %71, %70 ], [ @pbl_printf, %72 ]
  %75 = load ptr, ptr %8, align 8
  %76 = getelementptr inbounds nuw %struct.pbl_descriptor_pool_t, ptr %75, i32 0, i32 1
  store ptr %74, ptr %76, align 8
  %77 = call ptr @g_hash_table_new_full(ptr noundef @g_str_hash, ptr noundef @g_str_equal, ptr noundef @g_free, ptr noundef @pbl_free_node)
  %78 = load ptr, ptr %8, align 8
  %79 = getelementptr inbounds nuw %struct.pbl_descriptor_pool_t, ptr %78, i32 0, i32 2
  store ptr %77, ptr %79, align 8
  %80 = call ptr @g_hash_table_new_full(ptr noundef @g_str_hash, ptr noundef @g_str_equal, ptr noundef @g_free, ptr noundef @g_free)
  %81 = load ptr, ptr %8, align 8
  %82 = getelementptr inbounds nuw %struct.pbl_descriptor_pool_t, ptr %81, i32 0, i32 3
  store ptr %80, ptr %82, align 8
  %83 = call ptr @g_queue_new()
  %84 = load ptr, ptr %8, align 8
  %85 = getelementptr inbounds nuw %struct.pbl_descriptor_pool_t, ptr %84, i32 0, i32 4
  store ptr %83, ptr %85, align 8
  %86 = load ptr, ptr %8, align 8
  %87 = load ptr, ptr %4, align 8
  store ptr %86, ptr %87, align 8
  call void @llvm.lifetime.end.p0(i64 8, ptr %8) #13
  call void @llvm.lifetime.end.p0(i64 4, ptr %7) #13
  ret void
}