; Function Attrs: null_pointer_is_valid sspstrong uwtable
define hidden void @pbl_reinit_descriptor_pool(ptr noundef captures(none) %0, ptr noundef readonly captures(none) %1, ptr noundef %2) local_unnamed_addr #0 {
  %4 = load ptr, ptr %0, align 8
  %5 = icmp eq ptr %4, null
  br i1 %5, label %pbl_free_pool.exit, label %6

6:                                                ; preds = %3
  %7 = load ptr, ptr %4, align 8
  tail call void @g_queue_free_full(ptr noundef %7, ptr noundef nonnull @g_free)
  %8 = getelementptr inbounds nuw i8, ptr %4, i64 16
  %9 = load ptr, ptr %8, align 8
  tail call void @g_hash_table_destroy(ptr noundef %9)
  %10 = getelementptr inbounds nuw i8, ptr %4, i64 32
  %11 = load ptr, ptr %10, align 8
  tail call void @g_queue_free(ptr noundef %11)
  %12 = getelementptr inbounds nuw i8, ptr %4, i64 24
  %13 = load ptr, ptr %12, align 8
  tail call void @g_hash_table_destroy(ptr noundef %13)
  tail call void @g_free(ptr noundef nonnull %4)
  br label %pbl_free_pool.exit

pbl_free_pool.exit:                               ; preds = %3, %6
  %14 = tail call noalias dereferenceable_or_null(48) ptr @g_malloc0(i64 noundef 48) #13
  %15 = tail call ptr @g_queue_new()
  store ptr %15, ptr %14, align 8
  %16 = load ptr, ptr %1, align 8
  %.not30 = icmp eq ptr %16, null
  br i1 %.not30, label %._crit_edge, label %.lr.ph

.lr.ph:                                           ; preds = %pbl_free_pool.exit, %.lr.ph
  %17 = phi ptr [ %22, %.lr.ph ], [ %16, %pbl_free_pool.exit ]
  %.031 = phi i32 [ %19, %.lr.ph ], [ 0, %pbl_free_pool.exit ]
  %18 = tail call noalias ptr @g_strdup(ptr noundef nonnull %17)
  tail call void @g_queue_push_tail(ptr noundef %15, ptr noundef %18)
  %19 = add i32 %.031, 1
  %20 = zext i32 %19 to i64
  %21 = getelementptr ptr, ptr %1, i64 %20
  %22 = load ptr, ptr %21, align 8
  %.not = icmp eq ptr %22, null
  br i1 %.not, label %._crit_edge, label %.lr.ph, !llvm.loop !6

._crit_edge:                                      ; preds = %.lr.ph, %pbl_free_pool.exit
  %.not29 = icmp eq ptr %2, null
  %23 = select i1 %.not29, ptr @pbl_printf, ptr %2
  %24 = getelementptr inbounds nuw i8, ptr %14, i64 8
  store ptr %23, ptr %24, align 8
  %25 = tail call ptr @g_hash_table_new_full(ptr noundef nonnull @g_str_hash, ptr noundef nonnull @g_str_equal, ptr noundef nonnull @g_free, ptr noundef nonnull @pbl_free_node)
  %26 = getelementptr inbounds nuw i8, ptr %14, i64 16
  store ptr %25, ptr %26, align 8
  %27 = tail call ptr @g_hash_table_new_full(ptr noundef nonnull @g_str_hash, ptr noundef nonnull @g_str_equal, ptr noundef nonnull @g_free, ptr noundef nonnull @g_free)
  %28 = getelementptr inbounds nuw i8, ptr %14, i64 24
  store ptr %27, ptr %28, align 8
  %29 = tail call ptr @g_queue_new()
  %30 = getelementptr inbounds nuw i8, ptr %14, i64 32
  store ptr %29, ptr %30, align 8
  store ptr %14, ptr %0, align 8
  ret void
}